target datalayout = "e-m:e-p270:32:32-p271:32:32-p272:64:64-i64:64-i128:128-f80:128-n8:16:32:64-S128"
target triple = "x86_64-pc-linux-gnu"

%struct._ir_ctx = type { ptr, i32, i32, i32, i32, i32, i32, i32, i32, i32, i32, %struct._ir_insn, ptr, ptr, ptr, i32, i32, i32, ptr, ptr, ptr, ptr, ptr, i32, i32, i64, i32, i32, i32, i64, i32, i32, i32, i32, ptr, ptr, ptr, ptr, ptr, ptr, %union.anon.13, ptr, i32, i32, i32, i64, i32, i32, i32, ptr, ptr, ptr, ptr, %struct._ir_strtab, [61 x i32], [14 x i32] }
%struct._ir_insn = type { %struct.anon, %union.anon.5 }
%struct.anon = type { %union.anon, %union.anon.4 }
%union.anon = type { i32 }
%union.anon.4 = type { i32 }
%union.anon.5 = type { %union._ir_val }
%union._ir_val = type { double }
%union.anon.13 = type { ptr }
%struct._ir_strtab = type { ptr, i32, i32, i32, i32, ptr, i32, i32 }
%struct._ir_block = type { i32, i32, i32, i32, i32, i32, i32, %union.anon.14, %union.anon.15, i32, i32, i32, i32 }
%union.anon.14 = type { i32 }
%union.anon.15 = type { i32 }
%struct._ir_live_interval = type { i8, i8, i16, %union.anon.17, %union.anon.18, i32, %struct._ir_live_range, ptr, ptr, ptr, ptr }
%union.anon.17 = type { i32 }
%union.anon.18 = type { i32 }
%struct._ir_live_range = type { i32, i32, ptr }

; Function Attrs: nounwind uwtable
define internal zeroext i1 @ir_ival_has_hole_between(ptr noundef %0, i32 noundef %1, i32 noundef %2) #0 {
  %4 = alloca i1, align 1
  %5 = alloca ptr, align 8
  %6 = alloca i32, align 4
  %7 = alloca i32, align 4
  %8 = alloca ptr, align 8
  store ptr %0, ptr %5, align 8
  store i32 %1, ptr %6, align 4
  store i32 %2, ptr %7, align 4
  %9 = load ptr, ptr %5, align 8
  %10 = getelementptr inbounds %struct._ir_live_interval, ptr %9, i32 0, i32 6
  store ptr %10, ptr %8, align 8
  br label %11

11:                                               ; preds = %29, %3
  %12 = load ptr, ptr %8, align 8
  %13 = icmp ne ptr %12, null
  br i1 %13, label %14, label %33

14:                                               ; preds = %11
  %15 = load i32, ptr %6, align 4
  %16 = load ptr, ptr %8, align 8
  %17 = getelementptr inbounds %struct._ir_live_range, ptr %16, i32 0, i32 0
  %18 = load i32, ptr %17, align 8
  %19 = icmp slt i32 %15, %18
  br i1 %19, label %20, label %21

20:                                               ; preds = %14
  store i1 true, ptr %4, align 1
  br label %34

21:                                               ; preds = %14
  %22 = load i32, ptr %7, align 4
  %23 = load ptr, ptr %8, align 8
  %24 = getelementptr inbounds %struct._ir_live_range, ptr %23, i32 0, i32 1
  %25 = load i32, ptr %24, align 4
  %26 = icmp sle i32 %22, %25
  br i1 %26, label %27, label %28

27:                                               ; preds = %21
  store i1 false, ptr %4, align 1
  br label %34

28:                                               ; preds = %21
  br label %29

29:                                               ; preds = %28
  %30 = load ptr, ptr %8, align 8
  %31 = getelementptr inbounds %struct._ir_live_range, ptr %30, i32 0, i32 2
  %32 = load ptr, ptr %31, align 8
  store ptr %32, ptr %8, align 8
  br label %11

33:                                               ; preds = %11
  store i1 false, ptr %4, align 1
  br label %34

34:                                               ; preds = %33, %27, %20
  %35 = load i1, ptr %4, align 1
  ret i1 %35
}

; Function Attrs: nounwind uwtable
define internal ptr @ir_block_from_live_pos(ptr noundef %0, i32 noundef %1) #0 {
  %3 = alloca ptr, align 8
  %4 = alloca i32, align 4
  %5 = alloca i32, align 4
  %6 = alloca i32, align 4
  store ptr %0, ptr %3, align 8
  store i32 %1, ptr %4, align 4
  %7 = load i32, ptr %4, align 4
  %8 = sdiv i32 %7, 4
  store i32 %8, ptr %5, align 4
  %9 = load ptr, ptr %3, align 8
  %10 = getelementptr inbounds %struct._ir_ctx, ptr %9, i32 0, i32 20
  %11 = load ptr, ptr %10, align 8
  %12 = load i32, ptr %5, align 4
  %13 = sext i32 %12 to i64
  %14 = getelementptr inbounds i32, ptr %11, i64 %13
  %15 = load i32, ptr %14, align 4
  store i32 %15, ptr %6, align 4
  br label %16

16:                                               ; preds = %20, %2
  %17 = load i32, ptr %6, align 4
  %18 = icmp ne i32 %17, 0
  %19 = xor i1 %18, true
  br i1 %19, label %20, label %30

20:                                               ; preds = %16
  %21 = load i32, ptr %5, align 4
  %22 = add nsw i32 %21, -1
  store i32 %22, ptr %5, align 4
  %23 = load ptr, ptr %3, align 8
  %24 = getelementptr inbounds %struct._ir_ctx, ptr %23, i32 0, i32 20
  %25 = load ptr, ptr %24, align 8
  %26 = load i32, ptr %5, align 4
  %27 = sext i32 %26 to i64
  %28 = getelementptr inbounds i32, ptr %25, i64 %27
  %29 = load i32, ptr %28, align 4
  store i32 %29, ptr %6, align 4
  br label %16

30:                                               ; preds = %16
  %31 = load ptr, ptr %3, align 8
  %32 = getelementptr inbounds %struct._ir_ctx, ptr %31, i32 0, i32 18
  %33 = load ptr, ptr %32, align 8
  %34 = load i32, ptr %6, align 4
  %35 = zext i32 %34 to i64
  %36 = getelementptr inbounds %struct._ir_block, ptr %33, i64 %35
  ret ptr %36
}

; Function Attrs: nounwind uwtable
define internal i32 @ir_find_optimal_split_position(ptr noundef %0, ptr noundef %1, i32 noundef %2, i32 noundef %3, i1 noundef zeroext %4) #0 {
  %6 = alloca i32, align 4
  %7 = alloca ptr, align 8
  %8 = alloca ptr, align 8
  %9 = alloca i32, align 4
  %10 = alloca i32, align 4
  %11 = alloca i8, align 1
  %12 = alloca ptr, align 8
  %13 = alloca ptr, align 8
  %14 = alloca ptr, align 8
  store ptr %0, ptr %7, align 8
  store ptr %1, ptr %8, align 8
  store i32 %2, ptr %9, align 4
  store i32 %3, ptr %10, align 4
  %15 = zext i1 %4 to i8
  store i8 %15, ptr %11, align 1
  %16 = load i32, ptr %9, align 4
  %17 = load i32, ptr %10, align 4
  %18 = icmp eq i32 %16, %17
  br i1 %18, label %19, label %21

19:                                               ; preds = %5
  %20 = load i32, ptr %10, align 4
  store i32 %20, ptr %6, align 4
  br label %123

21:                                               ; preds = %5
  %22 = load ptr, ptr %7, align 8
  %23 = load i32, ptr %9, align 4
  %24 = call ptr @ir_block_from_live_pos(ptr noundef %22, i32 noundef %23)
  store ptr %24, ptr %12, align 8
  %25 = load ptr, ptr %7, align 8
  %26 = load i32, ptr %10, align 4
  %27 = call ptr @ir_block_from_live_pos(ptr noundef %25, i32 noundef %26)
  store ptr %27, ptr %13, align 8
  %28 = load ptr, ptr %12, align 8
  %29 = load ptr, ptr %13, align 8
  %30 = icmp eq ptr %28, %29
  br i1 %30, label %36, label %31

31:                                               ; preds = %21
  %32 = load ptr, ptr %8, align 8
  %33 = load i32, ptr %9, align 4
  %34 = load i32, ptr %10, align 4
  %35 = call zeroext i1 @ir_ival_has_hole_between(ptr noundef %32, i32 noundef %33, i32 noundef %34)
  br i1 %35, label %36, label %45

36:                                               ; preds = %31, %21
  %37 = load i8, ptr %11, align 1
  %38 = trunc i8 %37 to i1
  br i1 %38, label %39, label %41

39:                                               ; preds = %36
  %40 = load i32, ptr %10, align 4
  br label %43

41:                                               ; preds = %36
  %42 = load i32, ptr %9, align 4
  br label %43

43:                                               ; preds = %41, %39
  %44 = phi i32 [ %40, %39 ], [ %42, %41 ]
  store i32 %44, ptr %6, align 4
  br label %123

45:                                               ; preds = %31
  %46 = load ptr, ptr %13, align 8
  %47 = getelementptr inbounds %struct._ir_block, ptr %46, i32 0, i32 12
  %48 = load i32, ptr %47, align 4
  %49 = icmp ugt i32 %48, 0
  br i1 %49, label %50, label %107

50:                                               ; preds = %45
  br label %51

51:                                               ; preds = %87, %50
  %52 = load ptr, ptr %13, align 8
  %53 = getelementptr inbounds %struct._ir_block, ptr %52, i32 0, i32 0
  %54 = load i32, ptr %53, align 4
  %55 = and i32 %54, 8
  %56 = icmp ne i32 %55, 0
  br i1 %56, label %57, label %59

57:                                               ; preds = %51
  %58 = load ptr, ptr %13, align 8
  store ptr %58, ptr %14, align 8
  br label %68

59:                                               ; preds = %51
  %60 = load ptr, ptr %7, align 8
  %61 = getelementptr inbounds %struct._ir_ctx, ptr %60, i32 0, i32 18
  %62 = load ptr, ptr %61, align 8
  %63 = load ptr, ptr %13, align 8
  %64 = getelementptr inbounds %struct._ir_block, ptr %63, i32 0, i32 11
  %65 = load i32, ptr %64, align 4
  %66 = zext i32 %65 to i64
  %67 = getelementptr inbounds %struct._ir_block, ptr %62, i64 %66
  store ptr %67, ptr %14, align 8
  br label %68

68:                                               ; preds = %59, %57
  %69 = load ptr, ptr %7, align 8
  %70 = getelementptr inbounds %struct._ir_ctx, ptr %69, i32 0, i32 18
  %71 = load ptr, ptr %70, align 8
  %72 = load ptr, ptr %14, align 8
  %73 = getelementptr inbounds %struct._ir_block, ptr %72, i32 0, i32 7
  %74 = load i32, ptr %73, align 4
  %75 = zext i32 %74 to i64
  %76 = getelementptr inbounds %struct._ir_block, ptr %71, i64 %75
  store ptr %76, ptr %14, align 8
  %77 = load ptr, ptr %14, align 8
  %78 = getelementptr inbounds %struct._ir_block, ptr %77, i32 0, i32 2
  %79 = load i32, ptr %78, align 4
  %80 = mul nsw i32 %79, 4
  %81 = add nsw i32 %80, 2
  %82 = load i32, ptr %9, align 4
  %83 = icmp slt i32 %81, %82
  br i1 %83, label %84, label %85

84:                                               ; preds = %68
  br label %92

85:                                               ; preds = %68
  %86 = load ptr, ptr %14, align 8
  store ptr %86, ptr %13, align 8
  br label %87

87:                                               ; preds = %85
  %88 = load ptr, ptr %13, align 8
  %89 = getelementptr inbounds %struct._ir_block, ptr %88, i32 0, i32 12
  %90 = load i32, ptr %89, align 4
  %91 = icmp ugt i32 %90, 0
  br i1 %91, label %51, label %92

92:                                               ; preds = %87, %84
  %93 = load ptr, ptr %13, align 8
  %94 = getelementptr inbounds %struct._ir_block, ptr %93, i32 0, i32 2
  %95 = load i32, ptr %94, align 4
  %96 = mul nsw i32 %95, 4
  %97 = add nsw i32 %96, 2
  %98 = load i32, ptr %10, align 4
  %99 = icmp slt i32 %97, %98
  br i1 %99, label %100, label %106

100:                                              ; preds = %92
  %101 = load ptr, ptr %13, align 8
  %102 = getelementptr inbounds %struct._ir_block, ptr %101, i32 0, i32 2
  %103 = load i32, ptr %102, align 4
  %104 = mul nsw i32 %103, 4
  %105 = add nsw i32 %104, 2
  store i32 %105, ptr %6, align 4
  br label %123

106:                                              ; preds = %92
  br label %107

107:                                              ; preds = %106, %45
  %108 = load ptr, ptr %13, align 8
  %109 = getelementptr inbounds %struct._ir_block, ptr %108, i32 0, i32 1
  %110 = load i32, ptr %109, align 4
  %111 = mul nsw i32 %110, 4
  %112 = add nsw i32 %111, 0
  %113 = load i32, ptr %9, align 4
  %114 = icmp sgt i32 %112, %113
  br i1 %114, label %115, label %121

115:                                              ; preds = %107
  %116 = load ptr, ptr %13, align 8
  %117 = getelementptr inbounds %struct._ir_block, ptr %116, i32 0, i32 1
  %118 = load i32, ptr %117, align 4
  %119 = mul nsw i32 %118, 4
  %120 = add nsw i32 %119, 0
  store i32 %120, ptr %6, align 4
  br label %123

121:                                              ; preds = %107
  %122 = load i32, ptr %10, align 4
  store i32 %122, ptr %6, align 4
  br label %123

123:                                              ; preds = %121, %115, %100, %43, %19
  %124 = load i32, ptr %6, align 4
  ret i32 %124
}