; Function Attrs: nofree norecurse nosync nounwind memory(read, inaccessiblemem: none) uwtable
define internal fastcc i32 @ir_find_optimal_split_position(ptr nocapture noundef readonly %0, ptr nocapture noundef readonly %1, i32 noundef %2, i32 noundef %3, i1 noundef zeroext %4) unnamed_addr #12 {
  %6 = icmp eq i32 %2, %3
  br i1 %6, label %67, label %7

7:                                                ; preds = %5
  %8 = sdiv i32 %2, 4
  %9 = getelementptr inbounds i8, ptr %0, i64 120
  %10 = load ptr, ptr %9, align 8
  %11 = sext i32 %8 to i64
  br label %12

12:                                               ; preds = %12, %7
  %indvars.iv.i = phi i64 [ %indvars.iv.next.i, %12 ], [ %11, %7 ]
  %.0.in.i = getelementptr inbounds i32, ptr %10, i64 %indvars.iv.i
  %.0.i = load i32, ptr %.0.in.i, align 4
  %.not.i = icmp eq i32 %.0.i, 0
  %indvars.iv.next.i = add nsw i64 %indvars.iv.i, -1
  br i1 %.not.i, label %12, label %ir_block_from_live_pos.exit

ir_block_from_live_pos.exit:                      ; preds = %12
  %13 = getelementptr inbounds i8, ptr %0, i64 104
  %14 = load ptr, ptr %13, align 8
  %15 = sdiv i32 %3, 4
  %16 = sext i32 %15 to i64
  br label %17

17:                                               ; preds = %17, %ir_block_from_live_pos.exit
  %indvars.iv.i43 = phi i64 [ %indvars.iv.next.i47, %17 ], [ %16, %ir_block_from_live_pos.exit ]
  %.0.in.i44 = getelementptr inbounds i32, ptr %10, i64 %indvars.iv.i43
  %.0.i45 = load i32, ptr %.0.in.i44, align 4
  %.not.i46 = icmp eq i32 %.0.i45, 0
  %indvars.iv.next.i47 = add nsw i64 %indvars.iv.i43, -1
  br i1 %.not.i46, label %17, label %ir_block_from_live_pos.exit48

ir_block_from_live_pos.exit48:                    ; preds = %17
  %18 = zext i32 %.0.i45 to i64
  %19 = getelementptr inbounds %struct._ir_block, ptr %14, i64 %18
  %20 = icmp eq i32 %.0.i, %.0.i45
  br i1 %20, label %ir_ival_has_hole_between.exit, label %21

21:                                               ; preds = %ir_block_from_live_pos.exit48
  %22 = getelementptr inbounds i8, ptr %1, i64 16
  br label %23

23:                                               ; preds = %29, %21
  %.09.i = phi ptr [ %22, %21 ], [ %31, %29 ]
  %24 = load i32, ptr %.09.i, align 8
  %25 = icmp sgt i32 %24, %2
  br i1 %25, label %ir_ival_has_hole_between.exit, label %26

26:                                               ; preds = %23
  %27 = getelementptr inbounds i8, ptr %.09.i, i64 4
  %28 = load i32, ptr %27, align 4
  %.not8.i = icmp slt i32 %28, %3
  br i1 %.not8.i, label %29, label %33

29:                                               ; preds = %26
  %30 = getelementptr inbounds i8, ptr %.09.i, i64 8
  %31 = load ptr, ptr %30, align 8
  %.not.i49 = icmp eq ptr %31, null
  br i1 %.not.i49, label %33, label %23

ir_ival_has_hole_between.exit:                    ; preds = %23, %ir_block_from_live_pos.exit48
  %32 = select i1 %4, i32 %3, i32 %2
  br label %67

33:                                               ; preds = %26, %29
  %34 = getelementptr inbounds i8, ptr %19, i64 48
  %35 = load i32, ptr %34, align 4
  %.not = icmp eq i32 %35, 0
  br i1 %.not, label %62, label %.preheader

.preheader:                                       ; preds = %33, %53
  %.033 = phi ptr [ %47, %53 ], [ %19, %33 ]
  %36 = load i32, ptr %.033, align 4
  %37 = and i32 %36, 8
  %.not41 = icmp eq i32 %37, 0
  br i1 %.not41, label %38, label %43

38:                                               ; preds = %.preheader
  %39 = getelementptr inbounds i8, ptr %.033, i64 44
  %40 = load i32, ptr %39, align 4
  %41 = zext i32 %40 to i64
  %42 = getelementptr inbounds %struct._ir_block, ptr %14, i64 %41
  br label %43

43:                                               ; preds = %.preheader, %38
  %.0 = phi ptr [ %42, %38 ], [ %.033, %.preheader ]
  %44 = getelementptr inbounds i8, ptr %.0, i64 28
  %45 = load i32, ptr %44, align 4
  %46 = zext i32 %45 to i64
  %47 = getelementptr inbounds %struct._ir_block, ptr %14, i64 %46
  %48 = getelementptr inbounds i8, ptr %47, i64 8
  %49 = load i32, ptr %48, align 4
  %50 = shl nsw i32 %49, 2
  %51 = or disjoint i32 %50, 2
  %52 = icmp slt i32 %51, %2
  br i1 %52, label %56, label %53

53:                                               ; preds = %43
  %54 = getelementptr inbounds i8, ptr %47, i64 48
  %55 = load i32, ptr %54, align 4
  %.not42 = icmp eq i32 %55, 0
  br i1 %.not42, label %56, label %.preheader

56:                                               ; preds = %43, %53
  %.1 = phi ptr [ %.033, %43 ], [ %47, %53 ]
  %57 = getelementptr inbounds i8, ptr %.1, i64 8
  %58 = load i32, ptr %57, align 4
  %59 = shl nsw i32 %58, 2
  %60 = or disjoint i32 %59, 2
  %61 = icmp slt i32 %60, %3
  br i1 %61, label %67, label %62

62:                                               ; preds = %56, %33
  %.2 = phi ptr [ %.1, %56 ], [ %19, %33 ]
  %63 = getelementptr inbounds i8, ptr %.2, i64 4
  %64 = load i32, ptr %63, align 4
  %65 = shl nsw i32 %64, 2
  %66 = icmp sgt i32 %65, %2
  %. = select i1 %66, i32 %65, i32 %3
  br label %67

67:                                               ; preds = %62, %56, %5, %ir_ival_has_hole_between.exit
  %.034 = phi i32 [ %32, %ir_ival_has_hole_between.exit ], [ %2, %5 ], [ %60, %56 ], [ %., %62 ]
  ret i32 %.034
}